target datalayout = "e-m:e-p270:32:32-p271:32:32-p272:64:64-i64:64-i128:128-f80:128-n8:16:32:64-S128"
target triple = "x86_64-pc-linux-gnu"

%struct.ASN1_ITEM_st = type { i8, i64, ptr, i64, ptr, i64, ptr }
%struct.ASN1_PRIMITIVE_FUNCS_st = type { ptr, i64, ptr, ptr, ptr, ptr, ptr, ptr }
%struct.asn1_string_st = type { i32, i32, ptr, i64 }
%struct.asn1_type_st = type { i32, %union.anon }
%union.anon = type { ptr }
%struct.asn1_object_st = type { ptr, ptr, i32, i32, ptr, i32 }

; Function Attrs: nounwind uwtable
define hidden i32 @asn1_ex_i2c(ptr noundef %0, ptr noundef %1, ptr noundef %2, ptr noundef %3) #0 {
  %5 = alloca i32, align 4
  %6 = alloca ptr, align 8
  %7 = alloca ptr, align 8
  %8 = alloca ptr, align 8
  %9 = alloca ptr, align 8
  %10 = alloca ptr, align 8
  %11 = alloca ptr, align 8
  %12 = alloca ptr, align 8
  %13 = alloca i32, align 4
  %14 = alloca ptr, align 8
  %15 = alloca i8, align 1
  %16 = alloca i32, align 4
  %17 = alloca ptr, align 8
  %18 = alloca i32, align 4
  %19 = alloca ptr, align 8
  store ptr %0, ptr %6, align 8, !tbaa !19
  store ptr %1, ptr %7, align 8, !tbaa !17
  store ptr %2, ptr %8, align 8, !tbaa !55
  store ptr %3, ptr %9, align 8, !tbaa !13
  call void @llvm.lifetime.start.p0(i64 8, ptr %10) #7
  store ptr null, ptr %10, align 8, !tbaa !55
  call void @llvm.lifetime.start.p0(i64 8, ptr %11) #7
  call void @llvm.lifetime.start.p0(i64 8, ptr %12) #7
  call void @llvm.lifetime.start.p0(i64 4, ptr %13) #7
  call void @llvm.lifetime.start.p0(i64 8, ptr %14) #7
  call void @llvm.lifetime.start.p0(i64 1, ptr %15) #7
  call void @llvm.lifetime.start.p0(i64 4, ptr %16) #7
  call void @llvm.lifetime.start.p0(i64 8, ptr %17) #7
  %20 = load ptr, ptr %9, align 8, !tbaa !13
  %21 = getelementptr inbounds nuw %struct.ASN1_ITEM_st, ptr %20, i32 0, i32 4
  %22 = load ptr, ptr %21, align 8, !tbaa !23
  store ptr %22, ptr %17, align 8, !tbaa !57
  %23 = load ptr, ptr %17, align 8, !tbaa !57
  %24 = icmp ne ptr %23, null
  br i1 %24, label %25, label %39

25:                                               ; preds = %4
  %26 = load ptr, ptr %17, align 8, !tbaa !57
  %27 = getelementptr inbounds nuw %struct.ASN1_PRIMITIVE_FUNCS_st, ptr %26, i32 0, i32 6
  %28 = load ptr, ptr %27, align 8, !tbaa !59
  %29 = icmp ne ptr %28, null
  br i1 %29, label %30, label %39

30:                                               ; preds = %25
  %31 = load ptr, ptr %17, align 8, !tbaa !57
  %32 = getelementptr inbounds nuw %struct.ASN1_PRIMITIVE_FUNCS_st, ptr %31, i32 0, i32 6
  %33 = load ptr, ptr %32, align 8, !tbaa !59
  %34 = load ptr, ptr %6, align 8, !tbaa !19
  %35 = load ptr, ptr %7, align 8, !tbaa !17
  %36 = load ptr, ptr %8, align 8, !tbaa !55
  %37 = load ptr, ptr %9, align 8, !tbaa !13
  %38 = call i32 %33(ptr noundef %34, ptr noundef %35, ptr noundef %36, ptr noundef %37)
  store i32 %38, ptr %5, align 4
  store i32 1, ptr %18, align 4
  br label %201

39:                                               ; preds = %25, %4
  %40 = load ptr, ptr %9, align 8, !tbaa !13
  %41 = getelementptr inbounds nuw %struct.ASN1_ITEM_st, ptr %40, i32 0, i32 0
  %42 = load i8, ptr %41, align 8, !tbaa !29
  %43 = sext i8 %42 to i32
  %44 = icmp ne i32 %43, 0
  br i1 %44, label %50, label %45

45:                                               ; preds = %39
  %46 = load ptr, ptr %9, align 8, !tbaa !13
  %47 = getelementptr inbounds nuw %struct.ASN1_ITEM_st, ptr %46, i32 0, i32 1
  %48 = load i64, ptr %47, align 8, !tbaa !54
  %49 = icmp ne i64 %48, 1
  br i1 %49, label %50, label %56

50:                                               ; preds = %45, %39
  %51 = load ptr, ptr %6, align 8, !tbaa !19
  %52 = load ptr, ptr %51, align 8, !tbaa !6
  %53 = icmp ne ptr %52, null
  br i1 %53, label %55, label %54

54:                                               ; preds = %50
  store i32 -1, ptr %5, align 4
  store i32 1, ptr %18, align 4
  br label %201

55:                                               ; preds = %50
  br label %56

56:                                               ; preds = %55, %45
  %57 = load ptr, ptr %9, align 8, !tbaa !13
  %58 = getelementptr inbounds nuw %struct.ASN1_ITEM_st, ptr %57, i32 0, i32 0
  %59 = load i8, ptr %58, align 8, !tbaa !29
  %60 = sext i8 %59 to i32
  %61 = icmp eq i32 %60, 5
  br i1 %61, label %62, label %70

62:                                               ; preds = %56
  %63 = load ptr, ptr %6, align 8, !tbaa !19
  %64 = load ptr, ptr %63, align 8, !tbaa !6
  store ptr %64, ptr %11, align 8, !tbaa !61
  %65 = load ptr, ptr %11, align 8, !tbaa !61
  %66 = getelementptr inbounds nuw %struct.asn1_string_st, ptr %65, i32 0, i32 1
  %67 = load i32, ptr %66, align 4, !tbaa !63
  store i32 %67, ptr %13, align 4, !tbaa !15
  %68 = load i32, ptr %13, align 4, !tbaa !15
  %69 = load ptr, ptr %8, align 8, !tbaa !55
  store i32 %68, ptr %69, align 4, !tbaa !15
  br label %89

70:                                               ; preds = %56
  %71 = load ptr, ptr %9, align 8, !tbaa !13
  %72 = getelementptr inbounds nuw %struct.ASN1_ITEM_st, ptr %71, i32 0, i32 1
  %73 = load i64, ptr %72, align 8, !tbaa !54
  %74 = icmp eq i64 %73, -4
  br i1 %74, label %75, label %85

75:                                               ; preds = %70
  call void @llvm.lifetime.start.p0(i64 8, ptr %19) #7
  %76 = load ptr, ptr %6, align 8, !tbaa !19
  %77 = load ptr, ptr %76, align 8, !tbaa !6
  store ptr %77, ptr %19, align 8, !tbaa !65
  %78 = load ptr, ptr %19, align 8, !tbaa !65
  %79 = getelementptr inbounds nuw %struct.asn1_type_st, ptr %78, i32 0, i32 0
  %80 = load i32, ptr %79, align 8, !tbaa !67
  store i32 %80, ptr %13, align 4, !tbaa !15
  %81 = load i32, ptr %13, align 4, !tbaa !15
  %82 = load ptr, ptr %8, align 8, !tbaa !55
  store i32 %81, ptr %82, align 4, !tbaa !15
  %83 = load ptr, ptr %19, align 8, !tbaa !65
  %84 = getelementptr inbounds nuw %struct.asn1_type_st, ptr %83, i32 0, i32 1
  store ptr %84, ptr %6, align 8, !tbaa !19
  call void @llvm.lifetime.end.p0(i64 8, ptr %19) #7
  br label %88

85:                                               ; preds = %70
  %86 = load ptr, ptr %8, align 8, !tbaa !55
  %87 = load i32, ptr %86, align 4, !tbaa !15
  store i32 %87, ptr %13, align 4, !tbaa !15
  br label %88

88:                                               ; preds = %85, %75
  br label %89

89:                                               ; preds = %88, %62
  %90 = load i32, ptr %13, align 4, !tbaa !15
  switch i32 %90, label %158 [
    i32 6, label %91
    i32 5, label %100
    i32 1, label %101
    i32 3, label %137
    i32 2, label %147
    i32 258, label %147
    i32 10, label %147
    i32 266, label %147
    i32 4, label %157
    i32 18, label %157
    i32 19, label %157
    i32 20, label %157
    i32 21, label %157
    i32 22, label %157
    i32 23, label %157
    i32 24, label %157
    i32 25, label %157
    i32 26, label %157
    i32 27, label %157
    i32 28, label %157
    i32 30, label %157
    i32 12, label %157
    i32 16, label %157
    i32 17, label %157
  ]

91:                                               ; preds = %89
  %92 = load ptr, ptr %6, align 8, !tbaa !19
  %93 = load ptr, ptr %92, align 8, !tbaa !6
  store ptr %93, ptr %12, align 8, !tbaa !69
  %94 = load ptr, ptr %12, align 8, !tbaa !69
  %95 = getelementptr inbounds nuw %struct.asn1_object_st, ptr %94, i32 0, i32 4
  %96 = load ptr, ptr %95, align 8, !tbaa !71
  store ptr %96, ptr %14, align 8, !tbaa !17
  %97 = load ptr, ptr %12, align 8, !tbaa !69
  %98 = getelementptr inbounds nuw %struct.asn1_object_st, ptr %97, i32 0, i32 3
  %99 = load i32, ptr %98, align 4, !tbaa !73
  store i32 %99, ptr %16, align 4, !tbaa !15
  br label %188

100:                                              ; preds = %89
  store ptr null, ptr %14, align 8, !tbaa !17
  store i32 0, ptr %16, align 4, !tbaa !15
  br label %188

101:                                              ; preds = %89
  %102 = load ptr, ptr %6, align 8, !tbaa !19
  store ptr %102, ptr %10, align 8, !tbaa !55
  %103 = load ptr, ptr %10, align 8, !tbaa !55
  %104 = load i32, ptr %103, align 4, !tbaa !15
  %105 = icmp eq i32 %104, -1
  br i1 %105, label %106, label %107

106:                                              ; preds = %101
  store i32 -1, ptr %5, align 4
  store i32 1, ptr %18, align 4
  br label %201

107:                                              ; preds = %101
  %108 = load ptr, ptr %9, align 8, !tbaa !13
  %109 = getelementptr inbounds nuw %struct.ASN1_ITEM_st, ptr %108, i32 0, i32 1
  %110 = load i64, ptr %109, align 8, !tbaa !54
  %111 = icmp ne i64 %110, -4
  br i1 %111, label %112, label %133

112:                                              ; preds = %107
  %113 = load ptr, ptr %10, align 8, !tbaa !55
  %114 = load i32, ptr %113, align 4, !tbaa !15
  %115 = icmp ne i32 %114, 0
  br i1 %115, label %116, label %122

116:                                              ; preds = %112
  %117 = load ptr, ptr %9, align 8, !tbaa !13
  %118 = getelementptr inbounds nuw %struct.ASN1_ITEM_st, ptr %117, i32 0, i32 5
  %119 = load i64, ptr %118, align 8, !tbaa !74
  %120 = icmp sgt i64 %119, 0
  br i1 %120, label %121, label %122

121:                                              ; preds = %116
  store i32 -1, ptr %5, align 4
  store i32 1, ptr %18, align 4
  br label %201

122:                                              ; preds = %116, %112
  %123 = load ptr, ptr %10, align 8, !tbaa !55
  %124 = load i32, ptr %123, align 4, !tbaa !15
  %125 = icmp ne i32 %124, 0
  br i1 %125, label %132, label %126

126:                                              ; preds = %122
  %127 = load ptr, ptr %9, align 8, !tbaa !13
  %128 = getelementptr inbounds nuw %struct.ASN1_ITEM_st, ptr %127, i32 0, i32 5
  %129 = load i64, ptr %128, align 8, !tbaa !74
  %130 = icmp ne i64 %129, 0
  br i1 %130, label %132, label %131

131:                                              ; preds = %126
  store i32 -1, ptr %5, align 4
  store i32 1, ptr %18, align 4
  br label %201

132:                                              ; preds = %126, %122
  br label %133

133:                                              ; preds = %132, %107
  %134 = load ptr, ptr %10, align 8, !tbaa !55
  %135 = load i32, ptr %134, align 4, !tbaa !15
  %136 = trunc i32 %135 to i8
  store i8 %136, ptr %15, align 1, !tbaa !42
  store ptr %15, ptr %14, align 8, !tbaa !17
  store i32 1, ptr %16, align 4, !tbaa !15
  br label %188

137:                                              ; preds = %89
  %138 = load ptr, ptr %6, align 8, !tbaa !19
  %139 = load ptr, ptr %138, align 8, !tbaa !6
  %140 = load ptr, ptr %7, align 8, !tbaa !17
  %141 = icmp ne ptr %140, null
  br i1 %141, label %142, label %143

142:                                              ; preds = %137
  br label %144

143:                                              ; preds = %137
  br label %144

144:                                              ; preds = %143, %142
  %145 = phi ptr [ %7, %142 ], [ null, %143 ]
  %146 = call i32 @i2c_ASN1_BIT_STRING(ptr noundef %139, ptr noundef %145)
  store i32 %146, ptr %5, align 4
  store i32 1, ptr %18, align 4
  br label %201

147:                                              ; preds = %89, %89, %89, %89
  %148 = load ptr, ptr %6, align 8, !tbaa !19
  %149 = load ptr, ptr %148, align 8, !tbaa !6
  %150 = load ptr, ptr %7, align 8, !tbaa !17
  %151 = icmp ne ptr %150, null
  br i1 %151, label %152, label %153

152:                                              ; preds = %147
  br label %154

153:                                              ; preds = %147
  br label %154

154:                                              ; preds = %153, %152
  %155 = phi ptr [ %7, %152 ], [ null, %153 ]
  %156 = call i32 @i2c_ASN1_INTEGER(ptr noundef %149, ptr noundef %155)
  store i32 %156, ptr %5, align 4
  store i32 1, ptr %18, align 4
  br label %201

157:                                              ; preds = %89, %89, %89, %89, %89, %89, %89, %89, %89, %89, %89, %89, %89, %89, %89, %89
  br label %158

158:                                              ; preds = %89, %157
  %159 = load ptr, ptr %6, align 8, !tbaa !19
  %160 = load ptr, ptr %159, align 8, !tbaa !6
  store ptr %160, ptr %11, align 8, !tbaa !61
  %161 = load ptr, ptr %9, align 8, !tbaa !13
  %162 = getelementptr inbounds nuw %struct.ASN1_ITEM_st, ptr %161, i32 0, i32 5
  %163 = load i64, ptr %162, align 8, !tbaa !74
  %164 = icmp eq i64 %163, 2048
  br i1 %164, label %165, label %181

165:                                              ; preds = %158
  %166 = load ptr, ptr %11, align 8, !tbaa !61
  %167 = getelementptr inbounds nuw %struct.asn1_string_st, ptr %166, i32 0, i32 3
  %168 = load i64, ptr %167, align 8, !tbaa !75
  %169 = and i64 %168, 16
  %170 = icmp ne i64 %169, 0
  br i1 %170, label %171, label %181

171:                                              ; preds = %165
  %172 = load ptr, ptr %7, align 8, !tbaa !17
  %173 = icmp ne ptr %172, null
  br i1 %173, label %174, label %180

174:                                              ; preds = %171
  %175 = load ptr, ptr %7, align 8, !tbaa !17
  %176 = load ptr, ptr %11, align 8, !tbaa !61
  %177 = getelementptr inbounds nuw %struct.asn1_string_st, ptr %176, i32 0, i32 2
  store ptr %175, ptr %177, align 8, !tbaa !76
  %178 = load ptr, ptr %11, align 8, !tbaa !61
  %179 = getelementptr inbounds nuw %struct.asn1_string_st, ptr %178, i32 0, i32 0
  store i32 0, ptr %179, align 8, !tbaa !77
  br label %180

180:                                              ; preds = %174, %171
  store i32 -2, ptr %5, align 4
  store i32 1, ptr %18, align 4
  br label %201

181:                                              ; preds = %165, %158
  %182 = load ptr, ptr %11, align 8, !tbaa !61
  %183 = getelementptr inbounds nuw %struct.asn1_string_st, ptr %182, i32 0, i32 2
  %184 = load ptr, ptr %183, align 8, !tbaa !76
  store ptr %184, ptr %14, align 8, !tbaa !17
  %185 = load ptr, ptr %11, align 8, !tbaa !61
  %186 = getelementptr inbounds nuw %struct.asn1_string_st, ptr %185, i32 0, i32 0
  %187 = load i32, ptr %186, align 8, !tbaa !77
  store i32 %187, ptr %16, align 4, !tbaa !15
  br label %188

188:                                              ; preds = %181, %133, %100, %91
  %189 = load ptr, ptr %7, align 8, !tbaa !17
  %190 = icmp ne ptr %189, null
  br i1 %190, label %191, label %199

191:                                              ; preds = %188
  %192 = load i32, ptr %16, align 4, !tbaa !15
  %193 = icmp ne i32 %192, 0
  br i1 %193, label %194, label %199

194:                                              ; preds = %191
  %195 = load ptr, ptr %7, align 8, !tbaa !17
  %196 = load ptr, ptr %14, align 8, !tbaa !17
  %197 = load i32, ptr %16, align 4, !tbaa !15
  %198 = sext i32 %197 to i64
  call void @llvm.memcpy.p0.p0.i64(ptr align 1 %195, ptr align 1 %196, i64 %198, i1 false)
  br label %199

199:                                              ; preds = %194, %191, %188
  %200 = load i32, ptr %16, align 4, !tbaa !15
  store i32 %200, ptr %5, align 4
  store i32 1, ptr %18, align 4
  br label %201

201:                                              ; preds = %199, %180, %154, %144, %131, %121, %106, %54, %30
  call void @llvm.lifetime.end.p0(i64 8, ptr %17) #7
  call void @llvm.lifetime.end.p0(i64 4, ptr %16) #7
  call void @llvm.lifetime.end.p0(i64 1, ptr %15) #7
  call void @llvm.lifetime.end.p0(i64 8, ptr %14) #7
  call void @llvm.lifetime.end.p0(i64 4, ptr %13) #7
  call void @llvm.lifetime.end.p0(i64 8, ptr %12) #7
  call void @llvm.lifetime.end.p0(i64 8, ptr %11) #7
  call void @llvm.lifetime.end.p0(i64 8, ptr %10) #7
  %202 = load i32, ptr %5, align 4
  ret i32 %202
}