; Function Attrs: nounwind uwtable
define hidden i32 @asn1_ex_i2c(ptr noundef %0, ptr noundef %1, ptr noundef %2, ptr noundef %3) local_unnamed_addr #0 {
  %5 = alloca ptr, align 8
  %6 = alloca i8, align 1
  store ptr %1, ptr %5, align 8, !tbaa !11
  call void @llvm.lifetime.start.p0(i64 1, ptr nonnull %6) #10
  %7 = getelementptr inbounds nuw i8, ptr %3, i64 32
  %8 = load ptr, ptr %7, align 8, !tbaa !13
  %.not = icmp eq ptr %8, null
  br i1 %.not, label %14, label %9

9:                                                ; preds = %4
  %10 = getelementptr inbounds nuw i8, ptr %8, i64 48
  %11 = load ptr, ptr %10, align 8, !tbaa !47
  %.not58 = icmp eq ptr %11, null
  br i1 %.not58, label %14, label %12

12:                                               ; preds = %9
  %13 = tail call i32 %11(ptr noundef %0, ptr noundef %1, ptr noundef %2, ptr noundef nonnull %3) #10
  br label %.thread74

14:                                               ; preds = %9, %4
  %15 = load i8, ptr %3, align 8, !tbaa !17
  %.not59 = icmp eq i8 %15, 0
  br i1 %.not59, label %16, label %19

16:                                               ; preds = %14
  %17 = getelementptr inbounds nuw i8, ptr %3, i64 8
  %18 = load i64, ptr %17, align 8, !tbaa !46
  %.not60 = icmp eq i64 %18, 1
  br i1 %.not60, label %.thread.thread, label %.thread70

19:                                               ; preds = %14
  %20 = load ptr, ptr %0, align 8, !tbaa !6
  %.not61 = icmp eq ptr %20, null
  br i1 %.not61, label %.thread74, label %22

.thread70:                                        ; preds = %16
  %21 = load ptr, ptr %0, align 8, !tbaa !6
  %.not6171 = icmp eq ptr %21, null
  br i1 %.not6171, label %.thread74, label %.thread

22:                                               ; preds = %19
  %23 = icmp eq i8 %15, 5
  br i1 %23, label %24, label %..thread_crit_edge

..thread_crit_edge:                               ; preds = %22
  %.phi.trans.insert = getelementptr inbounds nuw i8, ptr %3, i64 8
  %.pre = load i64, ptr %.phi.trans.insert, align 8, !tbaa !46
  br label %.thread

24:                                               ; preds = %22
  %25 = getelementptr inbounds nuw i8, ptr %20, i64 4
  %26 = load i32, ptr %25, align 4, !tbaa !49
  store i32 %26, ptr %2, align 4, !tbaa !28
  br label %34

.thread:                                          ; preds = %..thread_crit_edge, %.thread70
  %27 = phi i64 [ %.pre, %..thread_crit_edge ], [ %18, %.thread70 ]
  %28 = icmp eq i64 %27, -4
  br i1 %28, label %29, label %.thread.thread

29:                                               ; preds = %.thread
  %30 = load ptr, ptr %0, align 8, !tbaa !6
  %31 = load i32, ptr %30, align 8, !tbaa !51
  store i32 %31, ptr %2, align 4, !tbaa !28
  %32 = getelementptr inbounds nuw i8, ptr %30, i64 8
  br label %34

.thread.thread:                                   ; preds = %16, %.thread
  %33 = load i32, ptr %2, align 4, !tbaa !28
  br label %34

34:                                               ; preds = %29, %.thread.thread, %24
  %.052 = phi i32 [ %26, %24 ], [ %31, %29 ], [ %33, %.thread.thread ]
  %.049 = phi ptr [ %0, %24 ], [ %32, %29 ], [ %0, %.thread.thread ]
  switch i32 %.052, label %61 [
    i32 6, label %35
    i32 5, label %.thread74
    i32 1, label %41
    i32 3, label %55
    i32 2, label %58
    i32 258, label %58
    i32 10, label %58
    i32 266, label %58
  ]

35:                                               ; preds = %34
  %36 = load ptr, ptr %.049, align 8, !tbaa !6
  %37 = getelementptr inbounds nuw i8, ptr %36, i64 24
  %38 = load ptr, ptr %37, align 8, !tbaa !53
  %39 = getelementptr inbounds nuw i8, ptr %36, i64 20
  %40 = load i32, ptr %39, align 4, !tbaa !55
  br label %77

41:                                               ; preds = %34
  %42 = load i32, ptr %.049, align 4, !tbaa !28
  %43 = icmp eq i32 %42, -1
  br i1 %43, label %.thread74, label %44

44:                                               ; preds = %41
  %45 = getelementptr inbounds nuw i8, ptr %3, i64 8
  %46 = load i64, ptr %45, align 8, !tbaa !46
  %.not64 = icmp eq i64 %46, -4
  br i1 %.not64, label %53, label %47

47:                                               ; preds = %44
  %.not65 = icmp eq i32 %42, 0
  %48 = getelementptr inbounds nuw i8, ptr %3, i64 40
  %49 = load i64, ptr %48, align 8, !tbaa !56
  br i1 %.not65, label %52, label %50

50:                                               ; preds = %47
  %51 = icmp sgt i64 %49, 0
  br i1 %51, label %.thread74, label %53

52:                                               ; preds = %47
  %.not67 = icmp eq i64 %49, 0
  br i1 %.not67, label %.thread74, label %53

53:                                               ; preds = %50, %52, %44
  %54 = trunc i32 %42 to i8
  store i8 %54, ptr %6, align 1, !tbaa !27
  br label %77

55:                                               ; preds = %34
  %56 = load ptr, ptr %.049, align 8, !tbaa !6
  %.not63 = icmp eq ptr %1, null
  %. = select i1 %.not63, ptr null, ptr %5
  %57 = call i32 @i2c_ASN1_BIT_STRING(ptr noundef %56, ptr noundef %.) #10
  br label %.thread74

58:                                               ; preds = %34, %34, %34, %34
  %59 = load ptr, ptr %.049, align 8, !tbaa !6
  %.not62 = icmp eq ptr %1, null
  %.1 = select i1 %.not62, ptr null, ptr %5
  %60 = call i32 @i2c_ASN1_INTEGER(ptr noundef %59, ptr noundef %.1) #10
  br label %.thread74

61:                                               ; preds = %34
  %62 = load ptr, ptr %.049, align 8, !tbaa !6
  %63 = getelementptr inbounds nuw i8, ptr %3, i64 40
  %64 = load i64, ptr %63, align 8, !tbaa !56
  %65 = icmp eq i64 %64, 2048
  br i1 %65, label %66, label %73

66:                                               ; preds = %61
  %67 = getelementptr inbounds nuw i8, ptr %62, i64 16
  %68 = load i64, ptr %67, align 8, !tbaa !57
  %69 = and i64 %68, 16
  %.not68 = icmp eq i64 %69, 0
  br i1 %.not68, label %73, label %70

70:                                               ; preds = %66
  %.not69 = icmp eq ptr %1, null
  br i1 %.not69, label %.thread74, label %71

71:                                               ; preds = %70
  %72 = getelementptr inbounds nuw i8, ptr %62, i64 8
  store ptr %1, ptr %72, align 8, !tbaa !58
  store i32 0, ptr %62, align 8, !tbaa !59
  br label %.thread74

73:                                               ; preds = %66, %61
  %74 = getelementptr inbounds nuw i8, ptr %62, i64 8
  %75 = load ptr, ptr %74, align 8, !tbaa !58
  %76 = load i32, ptr %62, align 8, !tbaa !59
  br label %77

77:                                               ; preds = %73, %53, %35
  %.051 = phi ptr [ %75, %73 ], [ %6, %53 ], [ %38, %35 ]
  %.050 = phi i32 [ %76, %73 ], [ 1, %53 ], [ %40, %35 ]
  %78 = icmp ne ptr %1, null
  %79 = icmp ne i32 %.050, 0
  %or.cond = select i1 %78, i1 %79, i1 false
  br i1 %or.cond, label %80, label %.thread74

80:                                               ; preds = %77
  %81 = sext i32 %.050 to i64
  call void @llvm.memcpy.p0.p0.i64(ptr nonnull align 1 %1, ptr align 1 %.051, i64 %81, i1 false)
  br label %.thread74

.thread74:                                        ; preds = %34, %.thread70, %77, %80, %70, %71, %52, %50, %41, %19, %58, %55, %12
  %.0 = phi i32 [ %13, %12 ], [ %60, %58 ], [ %57, %55 ], [ -1, %19 ], [ -1, %41 ], [ -1, %50 ], [ -1, %52 ], [ -2, %71 ], [ -2, %70 ], [ %.050, %80 ], [ %.050, %77 ], [ -1, %.thread70 ], [ 0, %34 ]
  call void @llvm.lifetime.end.p0(i64 1, ptr nonnull %6) #10
  ret i32 %.0
}